; ModuleID = '5/1075.c'
source_filename = "5/1075.c"
target datalayout = "e-m:e-p270:32:32-p271:32:32-p272:64:64-i64:64-f80:128-n8:16:32:64-S128"
target triple = "x86_64-pc-linux-gnu"

@.str = private unnamed_addr constant [8 x i8] c"%lf%s%s\00", align 1
@.str.1 = private unnamed_addr constant [6 x i8] c"error\00", align 1
@.str.2 = private unnamed_addr constant [4 x i8] c"yes\00", align 1
@.str.3 = private unnamed_addr constant [3 x i8] c"no\00", align 1

; Function Attrs: noinline nounwind uwtable
define dso_local i32 @main() #0 {
  %1 = alloca i32, align 4
  %2 = alloca [1000 x i8], align 16
  %3 = alloca [1000 x i8], align 16
  %4 = alloca i32, align 4
  %5 = alloca i32, align 4
  %6 = alloca i32, align 4
  %7 = alloca i32, align 4
  %8 = alloca i32, align 4
  %9 = alloca double, align 8
  %10 = alloca double, align 8
  store i32 0, i32* %1, align 4
  store i32 0, i32* %6, align 4
  store i32 0, i32* %7, align 4
  %11 = getelementptr inbounds [1000 x i8], [1000 x i8]* %2, i64 0, i64 0
  %12 = getelementptr inbounds [1000 x i8], [1000 x i8]* %3, i64 0, i64 0
  %13 = call i32 (i8*, ...) @__isoc99_scanf(i8* getelementptr inbounds ([8 x i8], [8 x i8]* @.str, i64 0, i64 0), double* %9, i8* %11, i8* %12)
  %14 = getelementptr inbounds [1000 x i8], [1000 x i8]* %2, i64 0, i64 0
  %15 = call i64 @strlen(i8* %14) #3
  %16 = trunc i64 %15 to i32
  store i32 %16, i32* %5, align 4
  %17 = getelementptr inbounds [1000 x i8], [1000 x i8]* %3, i64 0, i64 0
  %18 = call i64 @strlen(i8* %17) #3
  %19 = trunc i64 %18 to i32
  store i32 %19, i32* %8, align 4
  store i32 0, i32* %4, align 4
  br label %20

20:                                               ; preds = %87, %0
  %21 = load i32, i32* %4, align 4
  %22 = load i32, i32* %5, align 4
  %23 = icmp slt i32 %21, %22
  br i1 %23, label %24, label %90

24:                                               ; preds = %20
  %25 = load i32, i32* %4, align 4
  %26 = sext i32 %25 to i64
  %27 = getelementptr inbounds [1000 x i8], [1000 x i8]* %2, i64 0, i64 %26
  %28 = load i8, i8* %27, align 1
  %29 = sext i8 %28 to i32
  %30 = icmp ne i32 %29, 65
  br i1 %30, label %31, label %80

31:                                               ; preds = %24
  %32 = load i32, i32* %4, align 4
  %33 = sext i32 %32 to i64
  %34 = getelementptr inbounds [1000 x i8], [1000 x i8]* %2, i64 0, i64 %33
  %35 = load i8, i8* %34, align 1
  %36 = sext i8 %35 to i32
  %37 = icmp ne i32 %36, 84
  br i1 %37, label %38, label %80

38:                                               ; preds = %31
  %39 = load i32, i32* %4, align 4
  %40 = sext i32 %39 to i64
  %41 = getelementptr inbounds [1000 x i8], [1000 x i8]* %2, i64 0, i64 %40
  %42 = load i8, i8* %41, align 1
  %43 = sext i8 %42 to i32
  %44 = icmp ne i32 %43, 67
  br i1 %44, label %45, label %80

45:                                               ; preds = %38
  %46 = load i32, i32* %4, align 4
  %47 = sext i32 %46 to i64
  %48 = getelementptr inbounds [1000 x i8], [1000 x i8]* %2, i64 0, i64 %47
  %49 = load i8, i8* %48, align 1
  %50 = sext i8 %49 to i32
  %51 = icmp ne i32 %50, 71
  br i1 %51, label %52, label %80

52:                                               ; preds = %45
  %53 = load i32, i32* %4, align 4
  %54 = sext i32 %53 to i64
  %55 = getelementptr inbounds [1000 x i8], [1000 x i8]* %3, i64 0, i64 %54
  %56 = load i8, i8* %55, align 1
  %57 = sext i8 %56 to i32
  %58 = icmp ne i32 %57, 65
  br i1 %58, label %59, label %80

59:                                               ; preds = %52
  %60 = load i32, i32* %4, align 4
  %61 = sext i32 %60 to i64
  %62 = getelementptr inbounds [1000 x i8], [1000 x i8]* %3, i64 0, i64 %61
  %63 = load i8, i8* %62, align 1
  %64 = sext i8 %63 to i32
  %65 = icmp ne i32 %64, 84
  br i1 %65, label %66, label %80

66:                                               ; preds = %59
  %67 = load i32, i32* %4, align 4
  %68 = sext i32 %67 to i64
  %69 = getelementptr inbounds [1000 x i8], [1000 x i8]* %3, i64 0, i64 %68
  %70 = load i8, i8* %69, align 1
  %71 = sext i8 %70 to i32
  %72 = icmp ne i32 %71, 67
  br i1 %72, label %73, label %80

73:                                               ; preds = %66
  %74 = load i32, i32* %4, align 4
  %75 = sext i32 %74 to i64
  %76 = getelementptr inbounds [1000 x i8], [1000 x i8]* %3, i64 0, i64 %75
  %77 = load i8, i8* %76, align 1
  %78 = sext i8 %77 to i32
  %79 = icmp ne i32 %78, 71
  br i1 %79, label %84, label %80

80:                                               ; preds = %73, %66, %59, %52, %45, %38, %31, %24
  %81 = load i32, i32* %5, align 4
  %82 = load i32, i32* %8, align 4
  %83 = icmp ne i32 %81, %82
  br i1 %83, label %84, label %86

84:                                               ; preds = %80, %73
  %85 = call i32 (i8*, ...) @printf(i8* getelementptr inbounds ([6 x i8], [6 x i8]* @.str.1, i64 0, i64 0))
  store i32 1, i32* %6, align 4
  br label %90

86:                                               ; preds = %80
  br label %87

87:                                               ; preds = %86
  %88 = load i32, i32* %4, align 4
  %89 = add nsw i32 %88, 1
  store i32 %89, i32* %4, align 4
  br label %20

90:                                               ; preds = %84, %20
  %91 = load i32, i32* %6, align 4
  %92 = icmp eq i32 %91, 0
  br i1 %92, label %93, label %137

93:                                               ; preds = %90
  store i32 0, i32* %4, align 4
  br label %94

94:                                               ; preds = %114, %93
  %95 = load i32, i32* %4, align 4
  %96 = load i32, i32* %5, align 4
  %97 = icmp slt i32 %95, %96
  br i1 %97, label %98, label %117

98:                                               ; preds = %94
  %99 = load i32, i32* %4, align 4
  %100 = sext i32 %99 to i64
  %101 = getelementptr inbounds [1000 x i8], [1000 x i8]* %2, i64 0, i64 %100
  %102 = load i8, i8* %101, align 1
  %103 = sext i8 %102 to i32
  %104 = load i32, i32* %4, align 4
  %105 = sext i32 %104 to i64
  %106 = getelementptr inbounds [1000 x i8], [1000 x i8]* %3, i64 0, i64 %105
  %107 = load i8, i8* %106, align 1
  %108 = sext i8 %107 to i32
  %109 = icmp eq i32 %103, %108
  br i1 %109, label %110, label %113

110:                                              ; preds = %98
  %111 = load i32, i32* %7, align 4
  %112 = add nsw i32 %111, 1
  store i32 %112, i32* %7, align 4
  br label %113

113:                                              ; preds = %110, %98
  br label %114

114:                                              ; preds = %113
  %115 = load i32, i32* %4, align 4
  %116 = add nsw i32 %115, 1
  store i32 %116, i32* %4, align 4
  br label %94

117:                                              ; preds = %94
  %118 = load i32, i32* %7, align 4
  %119 = sitofp i32 %118 to double
  %120 = fmul double %119, 1.000000e+00
  %121 = load i32, i32* %5, align 4
  %122 = sitofp i32 %121 to double
  %123 = fdiv double %120, %122
  store double %123, double* %10, align 8
  %124 = load double, double* %10, align 8
  %125 = load double, double* %9, align 8
  %126 = fcmp oge double %124, %125
  br i1 %126, label %127, label %129

127:                                              ; preds = %117
  %128 = call i32 (i8*, ...) @printf(i8* getelementptr inbounds ([4 x i8], [4 x i8]* @.str.2, i64 0, i64 0))
  br label %136

129:                                              ; preds = %117
  %130 = load double, double* %10, align 8
  %131 = load double, double* %9, align 8
  %132 = fcmp olt double %130, %131
  br i1 %132, label %133, label %135

133:                                              ; preds = %129
  %134 = call i32 (i8*, ...) @printf(i8* getelementptr inbounds ([3 x i8], [3 x i8]* @.str.3, i64 0, i64 0))
  br label %135

135:                                              ; preds = %133, %129
  br label %136

136:                                              ; preds = %135, %127
  br label %137

137:                                              ; preds = %136, %90
  ret i32 0
}

declare dso_local i32 @__isoc99_scanf(i8*, ...) #1

; Function Attrs: nounwind readonly
declare dso_local i64 @strlen(i8*) #2

declare dso_local i32 @printf(i8*, ...) #1


!llvm.module.flags = !{!0}
!llvm.ident = !{!1}

!0 = !{i32 1, !"wchar_size", i32 4}
!1 = !{!"clang version 10.0.0-4ubuntu1 "}
